	.file	"serial_io.c"
	.section	".text"
.LLtext0:
	.cfi_sections	.debug_frame
	.file 0 "/home/sparcv8/ajit-toolchain/tests/C_example" "serial_io.c"
	.align 4
	.global halt
	.type	halt, #function
	.proc	020
halt:
.LLFB0:
	.file 1 "serial_io.c"
	.loc 1 8 1
	.cfi_startproc
	save	%sp, -96, %sp
	.cfi_window_save
	.cfi_register 15, 31
	.cfi_def_cfa_register 30
	.loc 1 9 2
! 9 "serial_io.c" 1
	ta 0; nop; nop;
! 0 "" 2
	.loc 1 10 1
	nop
	restore
	jmp	%o7+8
	 nop
	.cfi_endproc
.LLFE0:
	.size	halt, .-halt
	.align 4
	.global __enable_serial
	.type	__enable_serial, #function
	.proc	04
__enable_serial:
.LLFB1:
	.loc 1 13 1
	.cfi_startproc
	save	%sp, -96, %sp
	.cfi_window_save
	.cfi_register 15, 31
	.cfi_def_cfa_register 30
	.loc 1 14 2
	mov	3, %o0
	call	__ajit_write_serial_control_register_via_bypass__, 0
	 nop
	.loc 1 15 8
	mov	0, %g1
	.loc 1 16 1
	mov	%g1, %i0
	restore
	jmp	%o7+8
	 nop
	.cfi_endproc
.LLFE1:
	.size	__enable_serial, .-__enable_serial
	.align 4
	.global __disable_serial
	.type	__disable_serial, #function
	.proc	04
__disable_serial:
.LLFB2:
	.loc 1 19 1
	.cfi_startproc
	save	%sp, -96, %sp
	.cfi_window_save
	.cfi_register 15, 31
	.cfi_def_cfa_register 30
	.loc 1 20 2
	mov	0, %o0
	call	__ajit_write_serial_control_register_via_bypass__, 0
	 nop
	.loc 1 21 8
	mov	0, %g1
	.loc 1 22 1
	mov	%g1, %i0
	restore
	jmp	%o7+8
	 nop
	.cfi_endproc
.LLFE2:
	.size	__disable_serial, .-__disable_serial
	.align 4
	.global __putchar
	.type	__putchar, #function
	.proc	04
__putchar:
.LLFB3:
	.loc 1 25 1
	.cfi_startproc
	save	%sp, -104, %sp
	.cfi_window_save
	.cfi_register 15, 31
	.cfi_def_cfa_register 30
	mov	%i0, %g1
	stb	%g1, [%fp+68]
	.loc 1 26 6
	st	%g0, [%fp-4]
	.loc 1 27 7
	b	.LL7
	 nop
.LL8:
	.loc 1 29 10
	ldub	[%fp+68], %g1
	sll	%g1, 24, %g1
	sra	%g1, 24, %g1
	mov	%g1, %o0
	call	__ajit_serial_putchar_via_bypass__, 0
	 nop
	st	%o0, [%fp-4]
.LL7:
	.loc 1 27 13
	ld	[%fp-4], %g1
	cmp	%g1, 0
	be	.LL8
	 nop
	.loc 1 31 9
	ldub	[%fp+68], %g1
	sll	%g1, 24, %g1
	sra	%g1, 24, %g1
	.loc 1 32 1
	mov	%g1, %i0
	restore
	jmp	%o7+8
	 nop
	.cfi_endproc
.LLFE3:
	.size	__putchar, .-__putchar
	.align 4
	.global __getchar
	.type	__getchar, #function
	.proc	04
__getchar:
.LLFB4:
	.loc 1 36 1
	.cfi_startproc
	save	%sp, -104, %sp
	.cfi_window_save
	.cfi_register 15, 31
	.cfi_def_cfa_register 30
	.loc 1 37 6
	st	%g0, [%fp-4]
	.loc 1 38 7
	b	.LL11
	 nop
.LL12:
	.loc 1 40 10
	call	__ajit_serial_getchar_via_bypass__, 0
	 nop
	st	%o0, [%fp-4]
.LL11:
	.loc 1 38 13
	ld	[%fp-4], %g1
	cmp	%g1, 0
	be	.LL12
	 nop
	.loc 1 42 8
	ld	[%fp-4], %g1
	.loc 1 43 1
	mov	%g1, %i0
	restore
	jmp	%o7+8
	 nop
	.cfi_endproc
.LLFE4:
	.size	__getchar, .-__getchar
	.align 4
	.global __putstring
	.type	__putstring, #function
	.proc	020
__putstring:
.LLFB5:
	.loc 1 52 1
	.cfi_startproc
	save	%sp, -96, %sp
	.cfi_window_save
	.cfi_register 15, 31
	.cfi_def_cfa_register 30
	st	%i0, [%fp+68]
	.loc 1 53 8
	b	.LL15
	 nop
.LL16:
	.loc 1 55 3
	ld	[%fp+68], %g1
	ldub	[%g1], %g1
	sll	%g1, 24, %g1
	sra	%g1, 24, %g1
	mov	%g1, %o0
	call	__putchar, 0
	 nop
	.loc 1 56 4
	ld	[%fp+68], %g1
	add	%g1, 1, %g1
	st	%g1, [%fp+68]
.LL15:
	.loc 1 53 10
	ld	[%fp+68], %g1
	ldub	[%g1], %g1
	.loc 1 53 14
	sll	%g1, 24, %g1
	sra	%g1, 24, %g1
	cmp	%g1, 0
	bne	.LL16
	 nop
	.loc 1 58 1
	nop
	nop
	restore
	jmp	%o7+8
	 nop
	.cfi_endproc
.LLFE5:
	.size	__putstring, .-__putstring
	.align 4
	.global store_word_mmureg
	.type	store_word_mmureg, #function
	.proc	020
store_word_mmureg:
.LLFB6:
	.loc 1 64 1
	.cfi_startproc
	save	%sp, -96, %sp
	.cfi_window_save
	.cfi_register 15, 31
	.cfi_def_cfa_register 30
	st	%i0, [%fp+68]
	st	%i1, [%fp+72]
	.loc 1 65 9
	ld	[%fp+68], %g1
	ld	[%fp+72], %g2
! 65 "serial_io.c" 1
	sta %g1, [%g2] 4
	
! 0 "" 2
	.loc 1 67 1
	nop
	restore
	jmp	%o7+8
	 nop
	.cfi_endproc
.LLFE6:
	.size	store_word_mmureg, .-store_word_mmureg
	.section	".rodata"
	.align 8
.LLC0:
	.asciz	"Hello World!\n"
	.align 8
.LLC1:
	.asciz	"\nGoodbye!\n"
	.section	".text"
	.align 4
	.global ajit_main
	.type	ajit_main, #function
	.proc	04
ajit_main:
.LLFB7:
	.loc 1 71 1
	.cfi_startproc
	save	%sp, -96, %sp
	.cfi_window_save
	.cfi_register 15, 31
	.cfi_def_cfa_register 30
	.loc 1 72 2
	mov	0, %o1
	mov	256, %o0
	call	store_word_mmureg, 0
	 nop
	.loc 1 73 2
	call	__enable_serial, 0
	 nop
	.loc 1 74 2
	sethi	%hi(.LLC0), %g1
	or	%g1, %lo(.LLC0), %o0
	call	__putstring, 0
	 nop
	.loc 1 75 2
	sethi	%hi(.LLC1), %g1
	or	%g1, %lo(.LLC1), %o0
	call	__putstring, 0
	 nop
	.loc 1 76 2
	call	halt, 0
	 nop
	.loc 1 77 9
	mov	0, %g1
	.loc 1 78 1
	mov	%g1, %i0
	restore
	jmp	%o7+8
	 nop
	.cfi_endproc
.LLFE7:
	.size	ajit_main, .-ajit_main
.LLetext0:
	.file 2 "/home/sparcv8/ajit-toolchain/AjitPublicResources/tools/ajit_access_routines/include/ajit_access_routines.h"
	.file 3 "/home/sparcv8/x-tools/sparc-ajit32-elf/lib/gcc/sparc-ajit32-elf/15.2.0/include/stdint-gcc.h"